target datalayout = "e-m:e-p270:32:32-p271:32:32-p272:64:64-i64:64-i128:128-f80:128-n8:16:32:64-S128"
target triple = "x86_64-pc-linux-gnu"

%"class.QMetaObject::Connection" = type { ptr }
%class.QWidget = type { %class.QObject, %class.QPaintDevice, ptr }
%class.QObject = type { ptr, %class.QScopedPointer }
%class.QScopedPointer = type { ptr }
%class.QPaintDevice = type { ptr, i16, ptr }
%class.MLRenderingColorPicker = type { %class.QPushButton, ptr }
%class.QPushButton = type { %class.QAbstractButton }
%class.QAbstractButton = type { %class.QWidget }

@_ZTV22MLRenderingColorPicker = external unnamed_addr constant { [57 x ptr], [10 x ptr] }, align 8
@.str.36 = private unnamed_addr constant [11 x i8] c"2clicked()\00", align 1
@.str.37 = private unnamed_addr constant [13 x i8] c"1pickColor()\00", align 1

; Function Attrs: mustprogress uwtable
define void @_ZN22MLRenderingColorPicker7initGuiEv(ptr noundef nonnull align 8 dereferenceable(56) %0) #5 align 2 {
  %2 = alloca ptr, align 8
  %3 = alloca %"class.QMetaObject::Connection", align 8
  store ptr %0, ptr %2, align 8
  %4 = load ptr, ptr %2, align 8
  %5 = getelementptr inbounds %class.MLRenderingColorPicker, ptr %4, i32 0, i32 1
  %6 = load ptr, ptr %5, align 8
  %7 = icmp eq ptr %6, null
  br i1 %7, label %8, label %9

8:                                                ; preds = %1
  br label %10

9:                                                ; preds = %1
  call void @_ZN22MLRenderingColorPicker15updateColorInfoEv(ptr noundef nonnull align 8 dereferenceable(56) %4)
  call void @_ZN7QObject7connectEPKS_PKcS1_S3_N2Qt14ConnectionTypeE(ptr dead_on_unwind writable sret(%"class.QMetaObject::Connection") align 8 %3, ptr noundef %4, ptr noundef @.str.36, ptr noundef %4, ptr noundef @.str.37, i32 noundef 0)
  call void @_ZN11QMetaObject10ConnectionD1Ev(ptr noundef nonnull align 8 dereferenceable(8) %3) #3
  br label %10

10:                                               ; preds = %9, %8
  ret void
}

; Function Attrs: mustprogress uwtable
define void @_ZN22MLRenderingColorPickerC2EP40MLRenderingUserDefinedGeneralColorActionP7QWidget(ptr noundef nonnull align 8 dereferenceable(56) %0, ptr noundef %1, ptr noundef %2) unnamed_addr #5 align 2 personality ptr @__gxx_personality_v0 {
  %4 = alloca ptr, align 8
  %5 = alloca ptr, align 8
  %6 = alloca ptr, align 8
  %7 = alloca ptr, align 8
  %8 = alloca i32, align 4
  store ptr %0, ptr %4, align 8
  store ptr %1, ptr %5, align 8
  store ptr %2, ptr %6, align 8
  %9 = load ptr, ptr %4, align 8
  %10 = load ptr, ptr %6, align 8
  call void @_ZN11QPushButtonC2EP7QWidget(ptr noundef nonnull align 8 dereferenceable(48) %9, ptr noundef %10)
  store ptr getelementptr inbounds ({ [57 x ptr], [10 x ptr] }, ptr @_ZTV22MLRenderingColorPicker, i32 0, i32 0, i32 2), ptr %9, align 8
  %11 = getelementptr inbounds i8, ptr %9, i64 16
  store ptr getelementptr inbounds ({ [57 x ptr], [10 x ptr] }, ptr @_ZTV22MLRenderingColorPicker, i32 0, i32 1, i32 2), ptr %11, align 8
  %12 = getelementptr inbounds %class.MLRenderingColorPicker, ptr %9, i32 0, i32 1
  %13 = load ptr, ptr %5, align 8
  store ptr %13, ptr %12, align 8
  invoke void @_ZN22MLRenderingColorPicker7initGuiEv(ptr noundef nonnull align 8 dereferenceable(56) %9)
          to label %14 unwind label %15

14:                                               ; preds = %3
  ret void

15:                                               ; preds = %3
  %16 = landingpad { ptr, i32 }
          cleanup
  %17 = extractvalue { ptr, i32 } %16, 0
  store ptr %17, ptr %7, align 8
  %18 = extractvalue { ptr, i32 } %16, 1
  store i32 %18, ptr %8, align 4
  call void @_ZN11QPushButtonD2Ev(ptr noundef nonnull align 8 dereferenceable(48) %9) #3
  br label %19

19:                                               ; preds = %15
  %20 = load ptr, ptr %7, align 8
  %21 = load i32, ptr %8, align 4
  %22 = insertvalue { ptr, i32 } poison, ptr %20, 0
  %23 = insertvalue { ptr, i32 } %22, i32 %21, 1
  resume { ptr, i32 } %23
}