; Function Attrs: mustprogress uwtable
define void @_ZN22MLRenderingColorPickerC2EP40MLRenderingUserDefinedGeneralColorActionP7QWidget(ptr noundef nonnull align 8 dereferenceable(56) %0, ptr noundef %1, ptr noundef %2) unnamed_addr #3 align 2 personality ptr @__gxx_personality_v0 {
  %4 = alloca %"class.QMetaObject::Connection", align 8
  tail call void @_ZN11QPushButtonC2EP7QWidget(ptr noundef nonnull align 8 dereferenceable(48) %0, ptr noundef %2)
  store ptr getelementptr inbounds ({ [57 x ptr], [10 x ptr] }, ptr @_ZTV22MLRenderingColorPicker, i64 0, i32 0, i64 2), ptr %0, align 8
  %5 = getelementptr inbounds i8, ptr %0, i64 16
  store ptr getelementptr inbounds ({ [57 x ptr], [10 x ptr] }, ptr @_ZTV22MLRenderingColorPicker, i64 0, i32 1, i64 2), ptr %5, align 8
  %6 = getelementptr inbounds i8, ptr %0, i64 48
  store ptr %1, ptr %6, align 8
  call void @llvm.lifetime.start.p0(i64 8, ptr nonnull %4)
  %7 = icmp eq ptr %1, null
  br i1 %7, label %9, label %8

8:                                                ; preds = %3
  invoke void @_ZN22MLRenderingColorPicker15updateColorInfoEv(ptr noundef nonnull align 8 dereferenceable(56) %0)
          to label %.noexc unwind label %10

.noexc:                                           ; preds = %8
  invoke void @_ZN7QObject7connectEPKS_PKcS1_S3_N2Qt14ConnectionTypeE(ptr dead_on_unwind nonnull writable sret(%"class.QMetaObject::Connection") align 8 %4, ptr noundef nonnull %0, ptr noundef nonnull @.str.36, ptr noundef nonnull %0, ptr noundef nonnull @.str.37, i32 noundef 0)
          to label %.noexc4 unwind label %10

.noexc4:                                          ; preds = %.noexc
  call void @_ZN11QMetaObject10ConnectionD1Ev(ptr noundef nonnull align 8 dereferenceable(8) %4) #23
  br label %9

9:                                                ; preds = %.noexc4, %3
  call void @llvm.lifetime.end.p0(i64 8, ptr nonnull %4)
  ret void

10:                                               ; preds = %.noexc, %8
  %11 = landingpad { ptr, i32 }
          cleanup
  call void @_ZN11QPushButtonD2Ev(ptr noundef nonnull align 8 dereferenceable(48) %0) #23
  resume { ptr, i32 } %11
}